target datalayout = "e-m:e-p270:32:32-p271:32:32-p272:64:64-i64:64-i128:128-f80:128-n8:16:32:64-S128"
target triple = "x86_64-pc-linux-gnu"

; Function Attrs: mustprogress nounwind uwtable
define void @_ZN6icu_7717GregorianCalendarD2Ev(ptr noundef nonnull align 8 dereferenceable(222) %0) unnamed_addr #0 align 2 {
  %2 = alloca ptr, align 8
  store ptr %0, ptr %2, align 8, !tbaa !3
  %3 = load ptr, ptr %2, align 8
  call void @_ZN6icu_778CalendarD2Ev(ptr noundef nonnull align 8 dereferenceable(192) %3) #10
  ret void
}

; Function Attrs: mustprogress uwtable
define void @_ZN6icu_7717GregorianCalendarC2EiiiiiR10UErrorCode(ptr noundef nonnull align 8 dereferenceable(222) %0, i32 noundef %1, i32 noundef %2, i32 noundef %3, i32 noundef %4, i32 noundef %5, ptr noundef nonnull align 4 dereferenceable(4) %6) unnamed_addr #1 align 2 personality ptr @__gxx_personality_v0 {
  %8 = alloca ptr, align 8
  %9 = alloca i32, align 4
  %10 = alloca i32, align 4
  %11 = alloca i32, align 4
  %12 = alloca i32, align 4
  %13 = alloca i32, align 4
  %14 = alloca ptr, align 8
  %15 = alloca ptr, align 8
  %16 = alloca i32, align 4
  store ptr %0, ptr %8, align 8, !tbaa !3
  store i32 %1, ptr %9, align 4, !tbaa !31
  store i32 %2, ptr %10, align 4, !tbaa !31
  store i32 %3, ptr %11, align 4, !tbaa !31
  store i32 %4, ptr %12, align 4, !tbaa !31
  store i32 %5, ptr %13, align 4, !tbaa !31
  store ptr %6, ptr %14, align 8, !tbaa !8
  %17 = load ptr, ptr %8, align 8
  %18 = load i32, ptr %9, align 4, !tbaa !31
  %19 = load i32, ptr %10, align 4, !tbaa !31
  %20 = load i32, ptr %11, align 4, !tbaa !31
  %21 = load ptr, ptr %14, align 8, !tbaa !8
  call void @_ZN6icu_7717GregorianCalendarC2EiiiR10UErrorCode(ptr noundef nonnull align 8 dereferenceable(222) %17, i32 noundef %18, i32 noundef %19, i32 noundef %20, ptr noundef nonnull align 4 dereferenceable(4) %21)
  %22 = load i32, ptr %12, align 4, !tbaa !31
  invoke void @_ZN6icu_778Calendar3setE19UCalendarDateFieldsi(ptr noundef nonnull align 8 dereferenceable(192) %17, i32 noundef 11, i32 noundef %22)
          to label %23 unwind label %26

23:                                               ; preds = %7
  %24 = load i32, ptr %13, align 4, !tbaa !31
  invoke void @_ZN6icu_778Calendar3setE19UCalendarDateFieldsi(ptr noundef nonnull align 8 dereferenceable(192) %17, i32 noundef 12, i32 noundef %24)
          to label %25 unwind label %26

25:                                               ; preds = %23
  ret void

26:                                               ; preds = %23, %7
  %27 = landingpad { ptr, i32 }
          cleanup
  %28 = extractvalue { ptr, i32 } %27, 0
  store ptr %28, ptr %15, align 8
  %29 = extractvalue { ptr, i32 } %27, 1
  store i32 %29, ptr %16, align 4
  call void @_ZN6icu_7717GregorianCalendarD2Ev(ptr noundef nonnull align 8 dereferenceable(222) %17) #10
  br label %30

30:                                               ; preds = %26
  %31 = load ptr, ptr %15, align 8
  %32 = load i32, ptr %16, align 4
  %33 = insertvalue { ptr, i32 } poison, ptr %31, 0
  %34 = insertvalue { ptr, i32 } %33, i32 %32, 1
  resume { ptr, i32 } %34
}